target datalayout = "e-m:e-p270:32:32-p271:32:32-p272:64:64-i64:64-i128:128-f80:128-n8:16:32:64-S128"
target triple = "x86_64-pc-linux-gnu"

%"class.sls::smt_plugin" = type { %"class.sat::local_search_plugin", %"class.sls::sat_solver_context", ptr, ptr, %class.ast_manager, %class.ast_manager, %class.ast_translation, %class.ast_translation, %class.ast_translation, %class.ast_translation, %class.ast_translation, %class.ref_vector, %class.ref_vector, %class.ref_vector, ptr, %"class.sls::context", %"struct.std::atomic.43", %"struct.std::atomic.44", %"struct.std::atomic.44", %"class.std::thread", %"class.std::mutex", i32, i32, %class.svector.40, %class.ref, i8, i32, %class.obj_map.46, %class.obj_map.46, %class.vector.51, %"struct.std::atomic.44", %class.uint_set, %class.uint_set, %class.svector.52, %"struct.std::atomic.44", %"struct.std::atomic.44", %"struct.std::atomic.44", %class.svector.52, %class.svector.54, %class.svector.17, %class.svector.17 }
%"class.sat::local_search_plugin" = type { ptr }
%"class.sls::sat_solver_context" = type { ptr }
%class.ast_manager = type { %class.reslimit, %class.small_object_allocator, %class.family_manager, %class.parray_manager, %class.dependency_manager, %class.parray_manager.10, %class.ptr_vector.13, i32, i8, %class.ast_table, %class.obj_map, %class.id_gen, %class.id_gen, ptr, ptr, ptr, ptr, ptr, i32, i8, [3 x i8], %class.u_map, ptr, i8, i8, ptr, %class.symbol, %class.obj_map.21, ptr }
%class.reslimit = type { %"struct.std::atomic", i8, i64, i64, %class.svector, %class.ptr_vector }
%"struct.std::atomic" = type { %"struct.std::__atomic_base" }
%"struct.std::__atomic_base" = type { i32 }
%class.svector = type { %class.vector }
%class.vector = type { ptr }
%class.ptr_vector = type { %class.vector.0 }
%class.vector.0 = type { ptr }
%class.small_object_allocator = type { [32 x ptr], [32 x ptr], i64 }
%class.family_manager = type { i32, %class.symbol_table, %class.svector.4 }
%class.symbol_table = type { %class.core_hashtable, %class.vector.1, %class.svector.2 }
%class.core_hashtable = type <{ ptr, i32, i32, i32, [4 x i8] }>
%class.vector.1 = type { ptr }
%class.svector.2 = type { %class.vector.3 }
%class.vector.3 = type { ptr }
%class.svector.4 = type { %class.vector.5 }
%class.vector.5 = type { ptr }
%class.parray_manager = type { ptr, ptr, %class.ptr_vector.6, %class.ptr_vector.6 }
%class.ptr_vector.6 = type { %class.vector.7 }
%class.vector.7 = type { ptr }
%class.dependency_manager = type { ptr, ptr, %class.ptr_vector.8 }
%class.ptr_vector.8 = type { %class.vector.9 }
%class.vector.9 = type { ptr }
%class.parray_manager.10 = type { ptr, ptr, %class.ptr_vector.11, %class.ptr_vector.11 }
%class.ptr_vector.11 = type { %class.vector.12 }
%class.vector.12 = type { ptr }
%class.ptr_vector.13 = type { %class.vector.14 }
%class.vector.14 = type { ptr }
%class.ast_table = type { %class.chashtable }
%class.chashtable = type { ptr, i32, i32, i32, i32, i32, i32, i32, ptr, ptr, ptr }
%class.obj_map = type { %class.core_hashtable.15 }
%class.core_hashtable.15 = type <{ ptr, i32, i32, i32, [4 x i8] }>
%class.id_gen = type { i32, %class.svector.17 }
%class.u_map = type { %class.map }
%class.map = type { %class.table2map }
%class.table2map = type { %class.core_hashtable.19 }
%class.core_hashtable.19 = type <{ ptr, i32, i32, i32, [4 x i8] }>
%class.symbol = type { ptr }
%class.obj_map.21 = type { %class.core_hashtable.22 }
%class.core_hashtable.22 = type <{ ptr, i32, i32, i32, [4 x i8] }>
%class.ast_translation = type <{ ptr, ptr, %class.svector.26, %class.ptr_vector.28, %class.ptr_vector.28, %class.obj_map.30, i32, i32, i32, i32, i32, [4 x i8] }>
%class.svector.26 = type { %class.vector.27 }
%class.vector.27 = type { ptr }
%class.ptr_vector.28 = type { %class.vector.29 }
%class.vector.29 = type { ptr }
%class.obj_map.30 = type { %class.core_hashtable.31 }
%class.core_hashtable.31 = type <{ ptr, i32, i32, i32, [4 x i8] }>
%class.ref_vector = type { %class.ref_vector_core }
%class.ref_vector_core = type { %class.ref_manager_wrapper, %class.ptr_vector.35 }
%class.ref_manager_wrapper = type { ptr }
%class.ptr_vector.35 = type { %class.vector.36 }
%class.vector.36 = type { ptr }
%"class.sls::context" = type <{ ptr, ptr, %class.scoped_ptr_vector, %class.indexed_uint_set, %class.indexed_uint_set, %class.ref_vector, %class.svector.17, %class.params_ref, %class.vector.39, %class.svector.40, %class.svector.40, %class.indexed_uint_set, %class.random_gen, i8, i8, i8, i8, %class.ref_vector, %class.ref_vector, %class.ptr_vector.35, %"struct.sls::context::greater_depth", %"struct.sls::context::less_depth", %class.heap, %class.heap.42, %class.uint_set, %class.ref_vector, %"struct.sls::context::stats", [4 x i8], %class.ref_vector, i8, [7 x i8] }>
%class.scoped_ptr_vector = type { %class.ptr_vector.37 }
%class.ptr_vector.37 = type { %class.vector.38 }
%class.vector.38 = type { ptr }
%class.params_ref = type { ptr }
%class.vector.39 = type { ptr }
%class.indexed_uint_set = type { i32, %class.svector.17, %class.svector.17 }
%class.random_gen = type { i32 }
%"struct.sls::context::greater_depth" = type { ptr }
%"struct.sls::context::less_depth" = type { ptr }
%class.heap = type { %"struct.sls::context::greater_depth", %class.svector.2, %class.svector.2 }
%class.heap.42 = type { %"struct.sls::context::less_depth", %class.svector.2, %class.svector.2 }
%"struct.sls::context::stats" = type { i32, i32, i32 }
%"struct.std::atomic.43" = type { i32 }
%"class.std::thread" = type { %"class.std::thread::id" }
%"class.std::thread::id" = type { i64 }
%"class.std::mutex" = type { %"class.std::__mutex_base" }
%"class.std::__mutex_base" = type { %union.pthread_mutex_t }
%union.pthread_mutex_t = type { %struct.__pthread_mutex_s }
%struct.__pthread_mutex_s = type { i32, i32, i32, i32, i32, i16, i16, %struct.__pthread_internal_list }
%struct.__pthread_internal_list = type { ptr, ptr }
%class.svector.40 = type { %class.vector.41 }
%class.vector.41 = type { ptr }
%class.ref = type { ptr }
%class.obj_map.46 = type { %class.core_hashtable.47 }
%class.core_hashtable.47 = type <{ ptr, i32, i32, i32, [4 x i8] }>
%class.vector.51 = type { ptr }
%class.uint_set = type { %class.svector.17 }
%"struct.std::atomic.44" = type { %"struct.std::__atomic_base.45" }
%"struct.std::__atomic_base.45" = type { i8 }
%class.svector.52 = type { %class.vector.53 }
%class.vector.53 = type { ptr }
%class.svector.54 = type { %class.vector.55 }
%class.vector.55 = type { ptr }
%class.svector.17 = type { %class.vector.18 }
%class.vector.18 = type { ptr }

; Function Attrs: mustprogress nounwind uwtable
define linkonce_odr hidden noundef i32 @_ZNK16indexed_uint_set4sizeEv(ptr noundef nonnull align 8 dereferenceable(24) %0) #6 comdat align 2 {
  %2 = alloca ptr, align 8
  store ptr %0, ptr %2, align 8, !tbaa !345
  %3 = load ptr, ptr %2, align 8
  %4 = getelementptr inbounds nuw %class.indexed_uint_set, ptr %3, i32 0, i32 0
  %5 = load i32, ptr %4, align 8, !tbaa !347
  ret i32 %5
}

; Function Attrs: mustprogress uwtable
define hidden void @_ZN3sls10smt_plugin15export_from_slsEv(ptr noundef nonnull align 8 dereferenceable(3024) %0) #4 align 2 {
  %2 = alloca ptr, align 8
  store ptr %0, ptr %2, align 8, !tbaa !3
  %3 = load ptr, ptr %2, align 8
  %4 = load ptr, ptr %3, align 8, !tbaa !10
  %5 = getelementptr inbounds ptr, ptr %4, i64 20
  %6 = load ptr, ptr %5, align 8
  %7 = call noundef nonnull align 8 dereferenceable(24) ptr %6(ptr noundef nonnull align 8 dereferenceable(3024) %3)
  %8 = call noundef i32 @_ZNK16indexed_uint_set4sizeEv(ptr noundef nonnull align 8 dereferenceable(24) %7)
  %9 = getelementptr inbounds nuw %"class.sls::smt_plugin", ptr %3, i32 0, i32 26
  %10 = load i32, ptr %9, align 4, !tbaa !149
  %11 = icmp ugt i32 %8, %10
  br i1 %11, label %12, label %13

12:                                               ; preds = %1
  br label %20

13:                                               ; preds = %1
  %14 = load ptr, ptr %3, align 8, !tbaa !10
  %15 = getelementptr inbounds ptr, ptr %14, i64 20
  %16 = load ptr, ptr %15, align 8
  %17 = call noundef nonnull align 8 dereferenceable(24) ptr %16(ptr noundef nonnull align 8 dereferenceable(3024) %3)
  %18 = call noundef i32 @_ZNK16indexed_uint_set4sizeEv(ptr noundef nonnull align 8 dereferenceable(24) %17)
  %19 = getelementptr inbounds nuw %"class.sls::smt_plugin", ptr %3, i32 0, i32 26
  store i32 %18, ptr %19, align 4, !tbaa !149
  call void @_ZN3sls10smt_plugin21export_phase_from_slsEv(ptr noundef nonnull align 8 dereferenceable(3024) %3)
  call void @_ZN3sls10smt_plugin22export_values_from_slsEv(ptr noundef nonnull align 8 dereferenceable(3024) %3)
  br label %20

20:                                               ; preds = %13, %12
  ret void
}

; Function Attrs: mustprogress nounwind uwtable
define linkonce_odr hidden noundef zeroext i1 @_ZNK16indexed_uint_set5emptyEv(ptr noundef nonnull align 8 dereferenceable(24) %0) #6 comdat align 2 {
  %2 = alloca ptr, align 8
  store ptr %0, ptr %2, align 8, !tbaa !345
  %3 = load ptr, ptr %2, align 8
  %4 = getelementptr inbounds nuw %class.indexed_uint_set, ptr %3, i32 0, i32 0
  %5 = load i32, ptr %4, align 8, !tbaa !347
  %6 = icmp eq i32 %5, 0
  ret i1 %6
}

; Function Attrs: mustprogress uwtable
define hidden noundef i32 @_ZN3sls10smt_plugin13on_save_modelEv(ptr noundef nonnull align 8 dereferenceable(3024) %0) unnamed_addr #4 align 2 {
  %2 = alloca ptr, align 8
  %3 = alloca i32, align 4
  store ptr %0, ptr %2, align 8, !tbaa !3
  %4 = load ptr, ptr %2, align 8
  call void @llvm.lifetime.start.p0(i64 4, ptr %3) #3
  store i32 1, ptr %3, align 4, !tbaa !220
  br label %5

5:                                                ; preds = %18, %1
  %6 = load ptr, ptr %4, align 8, !tbaa !10
  %7 = getelementptr inbounds ptr, ptr %6, i64 20
  %8 = load ptr, ptr %7, align 8
  %9 = call noundef nonnull align 8 dereferenceable(24) ptr %8(ptr noundef nonnull align 8 dereferenceable(3024) %4)
  %10 = call noundef zeroext i1 @_ZNK16indexed_uint_set5emptyEv(ptr noundef nonnull align 8 dereferenceable(24) %9)
  br i1 %10, label %11, label %22

11:                                               ; preds = %5
  %12 = getelementptr inbounds nuw %"class.sls::smt_plugin", ptr %4, i32 0, i32 15
  %13 = call noundef i32 @_ZN3sls7context5checkEv(ptr noundef nonnull align 8 dereferenceable(321) %12)
  store i32 %13, ptr %3, align 4, !tbaa !220
  %14 = getelementptr inbounds nuw %"class.sls::smt_plugin", ptr %4, i32 0, i32 25
  %15 = load i8, ptr %14, align 8, !tbaa !148, !range !161, !noundef !162
  %16 = trunc i8 %15 to i1
  br i1 %16, label %18, label %17

17:                                               ; preds = %11
  br label %22

18:                                               ; preds = %11
  %19 = getelementptr inbounds nuw %"class.sls::smt_plugin", ptr %4, i32 0, i32 14
  %20 = load ptr, ptr %19, align 8, !tbaa !145
  call void @_ZN3sat4ddfw6reinitEv(ptr noundef nonnull align 8 dereferenceable(434) %20)
  %21 = getelementptr inbounds nuw %"class.sls::smt_plugin", ptr %4, i32 0, i32 25
  store i8 0, ptr %21, align 8, !tbaa !148
  br label %5, !llvm.loop !351

22:                                               ; preds = %17, %5
  call void @_ZN3sls10smt_plugin15export_from_slsEv(ptr noundef nonnull align 8 dereferenceable(3024) %4)
  %23 = load i32, ptr %3, align 4, !tbaa !220
  call void @llvm.lifetime.end.p0(i64 4, ptr %3) #3
  ret i32 %23
}