; Function Attrs: mustprogress uwtable
define hidden noundef i32 @_ZN3sls10smt_plugin13on_save_modelEv(ptr noundef nonnull align 8 dereferenceable(3024) %0) unnamed_addr #3 align 2 {
  %2 = load ptr, ptr %0, align 8, !tbaa !3
  %3 = getelementptr inbounds nuw i8, ptr %2, i64 160
  %4 = load ptr, ptr %3, align 8
  %5 = tail call noundef nonnull align 8 dereferenceable(24) ptr %4(ptr noundef nonnull align 8 dereferenceable(3024) %0)
  %6 = load i32, ptr %5, align 8, !tbaa !275
  %7 = icmp eq i32 %6, 0
  br i1 %7, label %.lr.ph, label %._crit_edge

.lr.ph:                                           ; preds = %1
  %8 = getelementptr inbounds nuw i8, ptr %0, i64 2480
  %9 = getelementptr inbounds nuw i8, ptr %0, i64 2888
  %10 = getelementptr inbounds nuw i8, ptr %0, i64 2472
  br label %11

11:                                               ; preds = %.lr.ph, %15
  %12 = tail call noundef i32 @_ZN3sls7context5checkEv(ptr noundef nonnull align 8 dereferenceable(321) %8)
  %13 = load i8, ptr %9, align 8, !tbaa !324, !range !325, !noundef !326
  %14 = trunc nuw i8 %13 to i1
  br i1 %14, label %15, label %._crit_edge

15:                                               ; preds = %11
  %16 = load ptr, ptr %10, align 8, !tbaa !191
  tail call void @_ZN3sat4ddfw6reinitEv(ptr noundef nonnull align 8 dereferenceable(434) %16)
  store i8 0, ptr %9, align 8, !tbaa !324
  %17 = load ptr, ptr %0, align 8, !tbaa !3
  %18 = getelementptr inbounds nuw i8, ptr %17, i64 160
  %19 = load ptr, ptr %18, align 8
  %20 = tail call noundef nonnull align 8 dereferenceable(24) ptr %19(ptr noundef nonnull align 8 dereferenceable(3024) %0)
  %21 = load i32, ptr %20, align 8, !tbaa !275
  %22 = icmp eq i32 %21, 0
  br i1 %22, label %11, label %._crit_edge, !llvm.loop !327

._crit_edge:                                      ; preds = %15, %11, %1
  %.1 = phi i32 [ 1, %1 ], [ %12, %11 ], [ %12, %15 ]
  %23 = load ptr, ptr %0, align 8, !tbaa !3
  %24 = getelementptr inbounds nuw i8, ptr %23, i64 160
  %25 = load ptr, ptr %24, align 8
  %26 = tail call noundef nonnull align 8 dereferenceable(24) ptr %25(ptr noundef nonnull align 8 dereferenceable(3024) %0)
  %27 = load i32, ptr %26, align 8, !tbaa !275
  %28 = getelementptr inbounds nuw i8, ptr %0, i64 2892
  %29 = load i32, ptr %28, align 4, !tbaa !147
  %30 = icmp ugt i32 %27, %29
  br i1 %30, label %_ZN3sls10smt_plugin15export_from_slsEv.exit, label %31

31:                                               ; preds = %._crit_edge
  %32 = load ptr, ptr %0, align 8, !tbaa !3
  %33 = getelementptr inbounds nuw i8, ptr %32, i64 160
  %34 = load ptr, ptr %33, align 8
  %35 = tail call noundef nonnull align 8 dereferenceable(24) ptr %34(ptr noundef nonnull align 8 dereferenceable(3024) %0)
  %36 = load i32, ptr %35, align 8, !tbaa !275
  store i32 %36, ptr %28, align 4, !tbaa !147
  tail call void @_ZN3sls10smt_plugin21export_phase_from_slsEv(ptr noundef nonnull align 8 dereferenceable(3024) %0)
  tail call void @_ZN3sls10smt_plugin22export_values_from_slsEv(ptr noundef nonnull align 8 dereferenceable(3024) %0)
  br label %_ZN3sls10smt_plugin15export_from_slsEv.exit

_ZN3sls10smt_plugin15export_from_slsEv.exit:      ; preds = %._crit_edge, %31
  ret i32 %.1
}